target datalayout = "e-m:e-p270:32:32-p271:32:32-p272:64:64-i64:64-i128:128-f80:128-n8:16:32:64-S128"
target triple = "x86_64-unknown-linux-gnu"

%struct.Token = type { i32, ptr, i64, x86_fp80, ptr, i32, ptr, ptr, ptr, ptr, i32, i32, i8, i8, ptr, ptr }
%struct.Type = type { i32, i32, i32, i8, i8, ptr, ptr, ptr, ptr, i32, ptr, ptr, ptr, i8, i8, ptr, ptr, i8, ptr }

@.str.56 = private unnamed_addr constant [2 x i8] c"[\00", align 1
@.str.57 = private unnamed_addr constant [2 x i8] c",\00", align 1
@.str.58 = private unnamed_addr constant [4 x i8] c"...\00", align 1
@.str.59 = private unnamed_addr constant [2 x i8] c"]\00", align 1
@.str.69 = private unnamed_addr constant [2 x i8] c"}\00", align 1

; Function Attrs: nounwind uwtable
define internal i64 @eval(ptr noundef %node) #0 {
entry:
  %node.addr = alloca ptr, align 8
  store ptr %node, ptr %node.addr, align 8
  %0 = load ptr, ptr %node.addr, align 8
  %call = call i64 @eval2(ptr noundef %0, ptr noundef null)
  ret i64 %call
}

; Function Attrs: nounwind uwtable
define dso_local i64 @const_expr(ptr noundef %rest, ptr noundef %tok) #0 {
entry:
  %rest.addr = alloca ptr, align 8
  %tok.addr = alloca ptr, align 8
  %node = alloca ptr, align 8
  store ptr %rest, ptr %rest.addr, align 8
  store ptr %tok, ptr %tok.addr, align 8
  %0 = load ptr, ptr %rest.addr, align 8
  %1 = load ptr, ptr %tok.addr, align 8
  %call = call ptr @conditional(ptr noundef %0, ptr noundef %1)
  store ptr %call, ptr %node, align 8
  %2 = load ptr, ptr %node, align 8
  %call1 = call i64 @eval(ptr noundef %2)
  ret i64 %call1
}

; Function Attrs: nounwind uwtable
define internal zeroext i1 @consume_end(ptr noundef %rest, ptr noundef %tok) #0 {
entry:
  %retval = alloca i1, align 1
  %rest.addr = alloca ptr, align 8
  %tok.addr = alloca ptr, align 8
  store ptr %rest, ptr %rest.addr, align 8
  store ptr %tok, ptr %tok.addr, align 8
  %0 = load ptr, ptr %tok.addr, align 8
  %call = call zeroext i1 @equal(ptr noundef %0, ptr noundef @.str.69)
  br i1 %call, label %if.then, label %if.end

if.then:                                          ; preds = %entry
  %1 = load ptr, ptr %tok.addr, align 8
  %next = getelementptr inbounds %struct.Token, ptr %1, i32 0, i32 1
  %2 = load ptr, ptr %next, align 8
  %3 = load ptr, ptr %rest.addr, align 8
  store ptr %2, ptr %3, align 8
  store i1 true, ptr %retval, align 1
  br label %return

if.end:                                           ; preds = %entry
  %4 = load ptr, ptr %tok.addr, align 8
  %call1 = call zeroext i1 @equal(ptr noundef %4, ptr noundef @.str.57)
  br i1 %call1, label %land.lhs.true, label %if.end7

land.lhs.true:                                    ; preds = %if.end
  %5 = load ptr, ptr %tok.addr, align 8
  %next2 = getelementptr inbounds %struct.Token, ptr %5, i32 0, i32 1
  %6 = load ptr, ptr %next2, align 8
  %call3 = call zeroext i1 @equal(ptr noundef %6, ptr noundef @.str.69)
  br i1 %call3, label %if.then4, label %if.end7

if.then4:                                         ; preds = %land.lhs.true
  %7 = load ptr, ptr %tok.addr, align 8
  %next5 = getelementptr inbounds %struct.Token, ptr %7, i32 0, i32 1
  %8 = load ptr, ptr %next5, align 8
  %next6 = getelementptr inbounds %struct.Token, ptr %8, i32 0, i32 1
  %9 = load ptr, ptr %next6, align 8
  %10 = load ptr, ptr %rest.addr, align 8
  store ptr %9, ptr %10, align 8
  store i1 true, ptr %retval, align 1
  br label %return

if.end7:                                          ; preds = %land.lhs.true, %if.end
  store i1 false, ptr %retval, align 1
  br label %return

return:                                           ; preds = %if.end7, %if.then4, %if.then
  %11 = load i1, ptr %retval, align 1
  ret i1 %11
}

; Function Attrs: nounwind uwtable
define internal i32 @count_array_init_elements(ptr noundef %tok, ptr noundef %ty) #0 {
entry:
  %tok.addr = alloca ptr, align 8
  %ty.addr = alloca ptr, align 8
  %first = alloca i8, align 1
  %dummy = alloca ptr, align 8
  %i = alloca i32, align 4
  %max = alloca i32, align 4
  store ptr %tok, ptr %tok.addr, align 8
  store ptr %ty, ptr %ty.addr, align 8
  store i8 1, ptr %first, align 1
  %0 = load ptr, ptr %ty.addr, align 8
  %base = getelementptr inbounds %struct.Type, ptr %0, i32 0, i32 6
  %1 = load ptr, ptr %base, align 8
  %call = call ptr @new_initializer(ptr noundef %1, i1 noundef zeroext true)
  store ptr %call, ptr %dummy, align 8
  store i32 0, ptr %i, align 4
  store i32 0, ptr %max, align 4
  br label %while.cond

while.cond:                                       ; preds = %cond.end, %entry
  %2 = load ptr, ptr %tok.addr, align 8
  %call1 = call zeroext i1 @consume_end(ptr noundef %tok.addr, ptr noundef %2)
  %lnot = xor i1 %call1, true
  br i1 %lnot, label %while.body, label %while.end

while.body:                                       ; preds = %while.cond
  %3 = load i8, ptr %first, align 1
  %tobool = trunc i8 %3 to i1
  br i1 %tobool, label %if.end, label %if.then

if.then:                                          ; preds = %while.body
  %4 = load ptr, ptr %tok.addr, align 8
  %call2 = call ptr @skip(ptr noundef %4, ptr noundef @.str.57)
  store ptr %call2, ptr %tok.addr, align 8
  br label %if.end

if.end:                                           ; preds = %if.then, %while.body
  store i8 0, ptr %first, align 1
  %5 = load ptr, ptr %tok.addr, align 8
  %call3 = call zeroext i1 @equal(ptr noundef %5, ptr noundef @.str.56)
  br i1 %call3, label %if.then4, label %if.else

if.then4:                                         ; preds = %if.end
  %6 = load ptr, ptr %tok.addr, align 8
  %next = getelementptr inbounds %struct.Token, ptr %6, i32 0, i32 1
  %7 = load ptr, ptr %next, align 8
  %call5 = call i64 @const_expr(ptr noundef %tok.addr, ptr noundef %7)
  %conv = trunc i64 %call5 to i32
  store i32 %conv, ptr %i, align 4
  %8 = load ptr, ptr %tok.addr, align 8
  %call6 = call zeroext i1 @equal(ptr noundef %8, ptr noundef @.str.58)
  br i1 %call6, label %if.then7, label %if.end11

if.then7:                                         ; preds = %if.then4
  %9 = load ptr, ptr %tok.addr, align 8
  %next8 = getelementptr inbounds %struct.Token, ptr %9, i32 0, i32 1
  %10 = load ptr, ptr %next8, align 8
  %call9 = call i64 @const_expr(ptr noundef %tok.addr, ptr noundef %10)
  %conv10 = trunc i64 %call9 to i32
  store i32 %conv10, ptr %i, align 4
  br label %if.end11

if.end11:                                         ; preds = %if.then7, %if.then4
  %11 = load ptr, ptr %tok.addr, align 8
  %call12 = call ptr @skip(ptr noundef %11, ptr noundef @.str.59)
  store ptr %call12, ptr %tok.addr, align 8
  %12 = load ptr, ptr %tok.addr, align 8
  %13 = load ptr, ptr %dummy, align 8
  call void @designation(ptr noundef %tok.addr, ptr noundef %12, ptr noundef %13)
  br label %if.end13

if.else:                                          ; preds = %if.end
  %14 = load ptr, ptr %tok.addr, align 8
  %15 = load ptr, ptr %dummy, align 8
  call void @initializer2(ptr noundef %tok.addr, ptr noundef %14, ptr noundef %15)
  br label %if.end13

if.end13:                                         ; preds = %if.else, %if.end11
  %16 = load i32, ptr %i, align 4
  %inc = add nsw i32 %16, 1
  store i32 %inc, ptr %i, align 4
  %17 = load i32, ptr %max, align 4
  %18 = load i32, ptr %i, align 4
  %cmp = icmp slt i32 %17, %18
  br i1 %cmp, label %cond.true, label %cond.false

cond.true:                                        ; preds = %if.end13
  %19 = load i32, ptr %i, align 4
  br label %cond.end

cond.false:                                       ; preds = %if.end13
  %20 = load i32, ptr %max, align 4
  br label %cond.end

cond.end:                                         ; preds = %cond.false, %cond.true
  %cond = phi i32 [ %19, %cond.true ], [ %20, %cond.false ]
  store i32 %cond, ptr %max, align 4
  br label %while.cond, !llvm.loop !43

while.end:                                        ; preds = %while.cond
  %21 = load i32, ptr %max, align 4
  ret i32 %21
}