; Function Attrs: nounwind uwtable
define internal fastcc i32 @count_array_init_elements(ptr noundef %tok, ptr nocapture noundef readonly %ty) unnamed_addr #0 {
entry:
  %tok.addr = alloca ptr, align 8
  store ptr %tok, ptr %tok.addr, align 8
  %base = getelementptr inbounds %struct.Type, ptr %ty, i64 0, i32 6
  %0 = load ptr, ptr %base, align 8
  %call = tail call fastcc ptr @new_initializer(ptr noundef %0, i1 noundef zeroext true)
  %call.i14 = tail call zeroext i1 @equal(ptr noundef %tok, ptr noundef nonnull @.str.69) #13
  br i1 %call.i14, label %while.end, label %if.end.i

if.end.i:                                         ; preds = %entry, %if.end13
  %1 = phi ptr [ %10, %if.end13 ], [ %tok, %entry ]
  %max.017 = phi i32 [ %cond, %if.end13 ], [ 0, %entry ]
  %i.016 = phi i32 [ %inc, %if.end13 ], [ 0, %entry ]
  %first.015 = phi i1 [ false, %if.end13 ], [ true, %entry ]
  %call1.i = call zeroext i1 @equal(ptr noundef %1, ptr noundef nonnull @.str.57) #13
  br i1 %call1.i, label %land.lhs.true.i, label %while.body

land.lhs.true.i:                                  ; preds = %if.end.i
  %next2.i = getelementptr inbounds %struct.Token, ptr %1, i64 0, i32 1
  %2 = load ptr, ptr %next2.i, align 8
  %call3.i = call zeroext i1 @equal(ptr noundef %2, ptr noundef nonnull @.str.69) #13
  br i1 %call3.i, label %while.end, label %while.body

while.body:                                       ; preds = %land.lhs.true.i, %if.end.i
  %.pre = load ptr, ptr %tok.addr, align 8
  br i1 %first.015, label %if.end, label %if.then

if.then:                                          ; preds = %while.body
  %call2 = call ptr @skip(ptr noundef %.pre, ptr noundef nonnull @.str.57) #13
  store ptr %call2, ptr %tok.addr, align 8
  br label %if.end

if.end:                                           ; preds = %if.then, %while.body
  %3 = phi ptr [ %call2, %if.then ], [ %.pre, %while.body ]
  %call3 = call zeroext i1 @equal(ptr noundef %3, ptr noundef nonnull @.str.56) #13
  %4 = load ptr, ptr %tok.addr, align 8
  br i1 %call3, label %if.then4, label %if.else

if.then4:                                         ; preds = %if.end
  %next = getelementptr inbounds %struct.Token, ptr %4, i64 0, i32 1
  %5 = load ptr, ptr %next, align 8
  %call.i6 = call fastcc ptr @conditional(ptr noundef nonnull %tok.addr, ptr noundef %5)
  %call.i.i = call fastcc i64 @eval2(ptr noundef %call.i6, ptr noundef null)
  %6 = load ptr, ptr %tok.addr, align 8
  %call6 = call zeroext i1 @equal(ptr noundef %6, ptr noundef nonnull @.str.58) #13
  br i1 %call6, label %if.then7, label %if.end11

if.then7:                                         ; preds = %if.then4
  %7 = load ptr, ptr %tok.addr, align 8
  %next8 = getelementptr inbounds %struct.Token, ptr %7, i64 0, i32 1
  %8 = load ptr, ptr %next8, align 8
  %call.i7 = call fastcc ptr @conditional(ptr noundef nonnull %tok.addr, ptr noundef %8)
  %call.i.i8 = call fastcc i64 @eval2(ptr noundef %call.i7, ptr noundef null)
  br label %if.end11

if.end11:                                         ; preds = %if.then7, %if.then4
  %i.1.in = phi i64 [ %call.i.i8, %if.then7 ], [ %call.i.i, %if.then4 ]
  %i.1 = trunc i64 %i.1.in to i32
  %9 = load ptr, ptr %tok.addr, align 8
  %call12 = call ptr @skip(ptr noundef %9, ptr noundef nonnull @.str.59) #13
  store ptr %call12, ptr %tok.addr, align 8
  call fastcc void @designation(ptr noundef nonnull %tok.addr, ptr noundef %call12, ptr noundef %call)
  br label %if.end13

if.else:                                          ; preds = %if.end
  call fastcc void @initializer2(ptr noundef nonnull %tok.addr, ptr noundef %4, ptr noundef %call)
  br label %if.end13

if.end13:                                         ; preds = %if.else, %if.end11
  %i.2 = phi i32 [ %i.1, %if.end11 ], [ %i.016, %if.else ]
  %inc = add nsw i32 %i.2, 1
  %cond = call i32 @llvm.smax.i32(i32 %max.017, i32 %inc)
  %10 = load ptr, ptr %tok.addr, align 8
  %call.i = call zeroext i1 @equal(ptr noundef %10, ptr noundef nonnull @.str.69) #13
  br i1 %call.i, label %while.end, label %if.end.i, !llvm.loop !47

while.end:                                        ; preds = %if.end13, %land.lhs.true.i, %entry
  %max.012 = phi i32 [ 0, %entry ], [ %cond, %if.end13 ], [ %max.017, %land.lhs.true.i ]
  ret i32 %max.012
}